target datalayout = "e-m:e-p270:32:32-p271:32:32-p272:64:64-i64:64-i128:128-f80:128-n8:16:32:64-S128"
target triple = "x86_64-pc-linux-gnu"

%struct._packet_info = type { ptr, ptr, i32, i32, %struct.nstime_t, %struct.nstime_t, %struct.nstime_t, i8, ptr, ptr, ptr, ptr, %struct._address, %struct._address, %struct._address, %struct._address, %struct._address, %struct._address, i32, ptr, i8, [3 x i8], %struct.anon, i32, i32, i32, i32, ptr, i8, ptr, ptr, i16, i16, i32, i32, i16, i32, i32, ptr, ptr, ptr, i8, i8, i16, i16, i16, i32, i16, i16, ptr, ptr, ptr, ptr, ptr, i32, i32 }
%struct.nstime_t = type { i64, i32 }
%struct._address = type { i32, i32, ptr, ptr }
%struct.anon = type { i8, [3 x i8] }

@hf_kafka_consumer_group = internal global i32 0, align 4
@hf_kafka_protocol_type = internal global i32 0, align 4
@.str.540 = private unnamed_addr constant [6 x i8] c"Group\00", align 1
@ett_kafka_group = internal global i32 0, align 4
@.str.759 = private unnamed_addr constant [33 x i8] c" (Group-ID=%s, Protocol-Type=%s)\00", align 1

; Function Attrs: null_pointer_is_valid sspstrong uwtable
define internal i32 @dissect_kafka_list_groups_response_group(ptr noundef %0, ptr noundef %1, ptr noundef %2, i32 noundef %3, i16 noundef signext %4) #0 {
  %6 = alloca ptr, align 8
  %7 = alloca ptr, align 8
  %8 = alloca ptr, align 8
  %9 = alloca i32, align 4
  %10 = alloca i16, align 2
  %11 = alloca ptr, align 8
  %12 = alloca ptr, align 8
  %13 = alloca i32, align 4
  %14 = alloca i32, align 4
  %15 = alloca i32, align 4
  %16 = alloca i32, align 4
  store ptr %0, ptr %6, align 8
  store ptr %1, ptr %7, align 8
  store ptr %2, ptr %8, align 8
  store i32 %3, ptr %9, align 4
  store i16 %4, ptr %10, align 2
  call void @llvm.lifetime.start.p0(i64 8, ptr %11) #12
  call void @llvm.lifetime.start.p0(i64 8, ptr %12) #12
  call void @llvm.lifetime.start.p0(i64 4, ptr %13) #12
  call void @llvm.lifetime.start.p0(i64 4, ptr %14) #12
  call void @llvm.lifetime.start.p0(i64 4, ptr %15) #12
  call void @llvm.lifetime.start.p0(i64 4, ptr %16) #12
  %17 = load ptr, ptr %8, align 8
  %18 = load ptr, ptr %6, align 8
  %19 = load i32, ptr %9, align 4
  %20 = load i32, ptr @ett_kafka_group, align 4
  %21 = call ptr @proto_tree_add_subtree(ptr noundef %17, ptr noundef %18, i32 noundef %19, i32 noundef -1, i32 noundef %20, ptr noundef %11, ptr noundef @.str.540)
  store ptr %21, ptr %12, align 8
  %22 = load ptr, ptr %12, align 8
  %23 = load i32, ptr @hf_kafka_consumer_group, align 4
  %24 = load ptr, ptr %6, align 8
  %25 = load ptr, ptr %7, align 8
  %26 = load i32, ptr %9, align 4
  %27 = load i16, ptr %10, align 2
  %28 = sext i16 %27 to i32
  %29 = icmp sge i32 %28, 3
  %30 = zext i1 %29 to i32
  %31 = call i32 @dissect_kafka_string(ptr noundef %22, i32 noundef %23, ptr noundef %24, ptr noundef %25, i32 noundef %26, i32 noundef %30, ptr noundef %13, ptr noundef %14)
  store i32 %31, ptr %9, align 4
  %32 = load ptr, ptr %12, align 8
  %33 = load i32, ptr @hf_kafka_protocol_type, align 4
  %34 = load ptr, ptr %6, align 8
  %35 = load ptr, ptr %7, align 8
  %36 = load i32, ptr %9, align 4
  %37 = load i16, ptr %10, align 2
  %38 = sext i16 %37 to i32
  %39 = icmp sge i32 %38, 3
  %40 = zext i1 %39 to i32
  %41 = call i32 @dissect_kafka_string(ptr noundef %32, i32 noundef %33, ptr noundef %34, ptr noundef %35, i32 noundef %36, i32 noundef %40, ptr noundef %15, ptr noundef %16)
  store i32 %41, ptr %9, align 4
  %42 = load i16, ptr %10, align 2
  %43 = sext i16 %42 to i32
  %44 = icmp sge i32 %43, 3
  br i1 %44, label %45, label %51

45:                                               ; preds = %5
  %46 = load ptr, ptr %6, align 8
  %47 = load ptr, ptr %7, align 8
  %48 = load ptr, ptr %12, align 8
  %49 = load i32, ptr %9, align 4
  %50 = call i32 @dissect_kafka_tagged_fields(ptr noundef %46, ptr noundef %47, ptr noundef %48, i32 noundef %49, i16 noundef signext 0)
  store i32 %50, ptr %9, align 4
  br label %51

51:                                               ; preds = %45, %5
  %52 = load ptr, ptr %11, align 8
  %53 = load ptr, ptr %6, align 8
  %54 = load i32, ptr %9, align 4
  call void @proto_item_set_end(ptr noundef %52, ptr noundef %53, i32 noundef %54)
  %55 = load ptr, ptr %11, align 8
  %56 = load ptr, ptr %7, align 8
  %57 = getelementptr inbounds nuw %struct._packet_info, ptr %56, i32 0, i32 51
  %58 = load ptr, ptr %57, align 8
  %59 = load ptr, ptr %6, align 8
  %60 = load i32, ptr %13, align 4
  %61 = load i32, ptr %14, align 4
  %62 = call ptr @tvb_get_string_enc(ptr noundef %58, ptr noundef %59, i32 noundef %60, i32 noundef %61, i32 noundef 2)
  %63 = load ptr, ptr %7, align 8
  %64 = getelementptr inbounds nuw %struct._packet_info, ptr %63, i32 0, i32 51
  %65 = load ptr, ptr %64, align 8
  %66 = load ptr, ptr %6, align 8
  %67 = load i32, ptr %15, align 4
  %68 = load i32, ptr %16, align 4
  %69 = call ptr @tvb_get_string_enc(ptr noundef %65, ptr noundef %66, i32 noundef %67, i32 noundef %68, i32 noundef 2)
  call void (ptr, ptr, ...) @proto_item_append_text(ptr noundef %55, ptr noundef @.str.759, ptr noundef %62, ptr noundef %69)
  %70 = load i32, ptr %9, align 4
  call void @llvm.lifetime.end.p0(i64 4, ptr %16) #12
  call void @llvm.lifetime.end.p0(i64 4, ptr %15) #12
  call void @llvm.lifetime.end.p0(i64 4, ptr %14) #12
  call void @llvm.lifetime.end.p0(i64 4, ptr %13) #12
  call void @llvm.lifetime.end.p0(i64 8, ptr %12) #12
  call void @llvm.lifetime.end.p0(i64 8, ptr %11) #12
  ret i32 %70
}