; Function Attrs: null_pointer_is_valid sspstrong uwtable
define internal noundef i32 @dissect_kafka_list_groups_response_group(ptr noundef %0, ptr noundef %1, ptr noundef %2, i32 noundef %3, i16 noundef signext %4) #0 {
  %6 = alloca ptr, align 8
  %7 = alloca i32, align 4
  %8 = alloca i32, align 4
  %9 = alloca i32, align 4
  %10 = alloca i32, align 4
  call void @llvm.lifetime.start.p0(i64 8, ptr nonnull %6) #9
  call void @llvm.lifetime.start.p0(i64 4, ptr nonnull %7) #9
  call void @llvm.lifetime.start.p0(i64 4, ptr nonnull %8) #9
  call void @llvm.lifetime.start.p0(i64 4, ptr nonnull %9) #9
  call void @llvm.lifetime.start.p0(i64 4, ptr nonnull %10) #9
  %11 = load i32, ptr @ett_kafka_group, align 4
  %12 = call ptr @proto_tree_add_subtree(ptr noundef %2, ptr noundef %0, i32 noundef %3, i32 noundef -1, i32 noundef %11, ptr noundef nonnull %6, ptr noundef nonnull @.str.540)
  %13 = load i32, ptr @hf_kafka_consumer_group, align 4
  %14 = icmp sgt i16 %4, 2
  %15 = zext i1 %14 to i32
  %16 = call fastcc i32 @dissect_kafka_string(ptr noundef %12, i32 noundef %13, ptr noundef %0, ptr noundef %1, i32 noundef %3, i32 noundef %15, ptr noundef nonnull %7, ptr noundef nonnull %8)
  %17 = load i32, ptr @hf_kafka_protocol_type, align 4
  %18 = call fastcc i32 @dissect_kafka_string(ptr noundef %12, i32 noundef %17, ptr noundef %0, ptr noundef %1, i32 noundef %16, i32 noundef %15, ptr noundef nonnull %9, ptr noundef nonnull %10)
  br i1 %14, label %19, label %21

19:                                               ; preds = %5
  %20 = call fastcc i32 @dissect_kafka_tagged_fields(ptr noundef %0, ptr noundef %1, ptr noundef %12, i32 noundef %18)
  br label %21

21:                                               ; preds = %19, %5
  %.0 = phi i32 [ %20, %19 ], [ %18, %5 ]
  %22 = load ptr, ptr %6, align 8
  call void @proto_item_set_end(ptr noundef %22, ptr noundef %0, i32 noundef %.0)
  %23 = load ptr, ptr %6, align 8
  %24 = getelementptr inbounds nuw i8, ptr %1, i64 408
  %25 = load ptr, ptr %24, align 8
  %26 = load i32, ptr %7, align 4
  %27 = load i32, ptr %8, align 4
  %28 = call ptr @tvb_get_string_enc(ptr noundef %25, ptr noundef %0, i32 noundef %26, i32 noundef %27, i32 noundef 2)
  %29 = load ptr, ptr %24, align 8
  %30 = load i32, ptr %9, align 4
  %31 = load i32, ptr %10, align 4
  %32 = call ptr @tvb_get_string_enc(ptr noundef %29, ptr noundef %0, i32 noundef %30, i32 noundef %31, i32 noundef 2)
  call void (ptr, ptr, ...) @proto_item_append_text(ptr noundef %23, ptr noundef nonnull @.str.759, ptr noundef %28, ptr noundef %32)
  call void @llvm.lifetime.end.p0(i64 4, ptr nonnull %10) #9
  call void @llvm.lifetime.end.p0(i64 4, ptr nonnull %9) #9
  call void @llvm.lifetime.end.p0(i64 4, ptr nonnull %8) #9
  call void @llvm.lifetime.end.p0(i64 4, ptr nonnull %7) #9
  call void @llvm.lifetime.end.p0(i64 8, ptr nonnull %6) #9
  ret i32 %.0
}